target datalayout = "e-m:e-p270:32:32-p271:32:32-p272:64:64-i64:64-i128:128-f80:128-n8:16:32:64-S128"
target triple = "x86_64-pc-linux-gnu"

%struct.pmix_proc = type { [256 x i8], i32 }
%struct.pmix_list_t = type { %struct.pmix_object_t, %struct.pmix_list_item_t, i64 }
%struct.pmix_object_t = type { %union.pthread_mutex_t, ptr, i32, %struct.pmix_tma }
%union.pthread_mutex_t = type { %struct.__pthread_mutex_s }
%struct.__pthread_mutex_s = type { i32, i32, i32, i32, i32, i16, i16, %struct.__pthread_internal_list }
%struct.__pthread_internal_list = type { ptr, ptr }
%struct.pmix_tma = type { ptr, ptr, ptr, ptr, ptr, ptr, ptr, ptr }
%struct.pmix_list_item_t = type { %struct.pmix_object_t, ptr, ptr, i32 }
%struct.pmix_pointer_array_t = type { %struct.pmix_object_t, i32, i32, i32, i32, i32, ptr, ptr }
%struct.prte_proc_t = type { %struct.pmix_list_item_t, %struct.pmix_proc, i32, i32, i16, i16, i32, i16, i32, i32, i32, i32, ptr, ptr, ptr, ptr, i16, %struct.pmix_list_t }

@prte_local_children = external global ptr, align 8

; Function Attrs: inlinehint nounwind uwtable
define internal ptr @pmix_pointer_array_get_item(ptr noundef %0, i32 noundef %1) #3 {
  %3 = alloca ptr, align 8
  %4 = alloca ptr, align 8
  %5 = alloca i32, align 4
  %6 = alloca ptr, align 8
  %7 = alloca i32, align 4
  store ptr %0, ptr %4, align 8, !tbaa !76
  store i32 %1, ptr %5, align 4, !tbaa !9
  call void @llvm.lifetime.start.p0(i64 8, ptr %6) #12
  %8 = load i32, ptr %5, align 4, !tbaa !9
  %9 = icmp sgt i32 0, %8
  br i1 %9, label %16, label %10

10:                                               ; preds = %2
  %11 = load ptr, ptr %4, align 8, !tbaa !76
  %12 = getelementptr inbounds nuw %struct.pmix_pointer_array_t, ptr %11, i32 0, i32 3
  %13 = load i32, ptr %12, align 8, !tbaa !77
  %14 = load i32, ptr %5, align 4, !tbaa !9
  %15 = icmp sle i32 %13, %14
  br label %16

16:                                               ; preds = %10, %2
  %17 = phi i1 [ true, %2 ], [ %15, %10 ]
  %18 = xor i1 %17, true
  %19 = xor i1 %18, true
  %20 = zext i1 %19 to i32
  %21 = sext i32 %20 to i64
  %22 = call i64 @llvm.expect.i64(i64 %21, i64 0)
  %23 = icmp ne i64 %22, 0
  br i1 %23, label %24, label %25

24:                                               ; preds = %16
  store ptr null, ptr %3, align 8
  store i32 1, ptr %7, align 4
  br label %34

25:                                               ; preds = %16
  %26 = load ptr, ptr %4, align 8, !tbaa !76
  %27 = getelementptr inbounds nuw %struct.pmix_pointer_array_t, ptr %26, i32 0, i32 7
  %28 = load ptr, ptr %27, align 8, !tbaa !110
  %29 = load i32, ptr %5, align 4, !tbaa !9
  %30 = sext i32 %29 to i64
  %31 = getelementptr inbounds ptr, ptr %28, i64 %30
  %32 = load ptr, ptr %31, align 8, !tbaa !13
  store ptr %32, ptr %6, align 8, !tbaa !13
  %33 = load ptr, ptr %6, align 8, !tbaa !13
  store ptr %33, ptr %3, align 8
  store i32 1, ptr %7, align 4
  br label %34

34:                                               ; preds = %25, %24
  call void @llvm.lifetime.end.p0(i64 8, ptr %6) #12
  %35 = load ptr, ptr %3, align 8
  ret ptr %35
}

; Function Attrs: nounwind uwtable
define internal zeroext i1 @any_live_children(ptr noundef %0) #0 {
  %2 = alloca i1, align 1
  %3 = alloca ptr, align 8
  %4 = alloca i32, align 4
  %5 = alloca ptr, align 8
  %6 = alloca i32, align 4
  store ptr %0, ptr %3, align 8, !tbaa !93
  call void @llvm.lifetime.start.p0(i64 4, ptr %4) #12
  call void @llvm.lifetime.start.p0(i64 8, ptr %5) #12
  store i32 0, ptr %4, align 4, !tbaa !9
  br label %7

7:                                                ; preds = %38, %1
  %8 = load i32, ptr %4, align 4, !tbaa !9
  %9 = load ptr, ptr @prte_local_children, align 8, !tbaa !76
  %10 = getelementptr inbounds nuw %struct.pmix_pointer_array_t, ptr %9, i32 0, i32 3
  %11 = load i32, ptr %10, align 8, !tbaa !77
  %12 = icmp slt i32 %8, %11
  br i1 %12, label %13, label %41

13:                                               ; preds = %7
  %14 = load ptr, ptr @prte_local_children, align 8, !tbaa !76
  %15 = load i32, ptr %4, align 4, !tbaa !9
  %16 = call ptr @pmix_pointer_array_get_item(ptr noundef %14, i32 noundef %15)
  store ptr %16, ptr %5, align 8, !tbaa !65
  %17 = icmp eq ptr null, %16
  br i1 %17, label %18, label %19

18:                                               ; preds = %13
  br label %38

19:                                               ; preds = %13
  %20 = load ptr, ptr %3, align 8, !tbaa !93
  %21 = call zeroext i1 @PMIx_Nspace_invalid(ptr noundef %20)
  br i1 %21, label %29, label %22

22:                                               ; preds = %19
  %23 = load ptr, ptr %3, align 8, !tbaa !93
  %24 = load ptr, ptr %5, align 8, !tbaa !65
  %25 = getelementptr inbounds nuw %struct.prte_proc_t, ptr %24, i32 0, i32 1
  %26 = getelementptr inbounds nuw %struct.pmix_proc, ptr %25, i32 0, i32 0
  %27 = getelementptr inbounds [256 x i8], ptr %26, i64 0, i64 0
  %28 = call zeroext i1 @PMIx_Check_nspace(ptr noundef %23, ptr noundef %27)
  br i1 %28, label %29, label %37

29:                                               ; preds = %22, %19
  %30 = load ptr, ptr %5, align 8, !tbaa !65
  %31 = getelementptr inbounds nuw %struct.prte_proc_t, ptr %30, i32 0, i32 16
  %32 = load i16, ptr %31, align 8, !tbaa !80
  %33 = zext i16 %32 to i32
  %34 = and i32 %33, 1
  %35 = icmp ne i32 %34, 0
  br i1 %35, label %36, label %37

36:                                               ; preds = %29
  store i1 true, ptr %2, align 1
  store i32 1, ptr %6, align 4
  br label %42

37:                                               ; preds = %29, %22
  br label %38

38:                                               ; preds = %37, %18
  %39 = load i32, ptr %4, align 4, !tbaa !9
  %40 = add nsw i32 %39, 1
  store i32 %40, ptr %4, align 4, !tbaa !9
  br label %7, !llvm.loop !128

41:                                               ; preds = %7
  store i1 false, ptr %2, align 1
  store i32 1, ptr %6, align 4
  br label %42

42:                                               ; preds = %41, %36
  call void @llvm.lifetime.end.p0(i64 8, ptr %5) #12
  call void @llvm.lifetime.end.p0(i64 4, ptr %4) #12
  %43 = load i1, ptr %2, align 1
  ret i1 %43
}