; Function Attrs: nounwind uwtable
define internal fastcc noundef zeroext i1 @any_live_children(ptr noundef %0) unnamed_addr #0 {
  %2 = load ptr, ptr @prte_local_children, align 8, !tbaa !49
  %3 = getelementptr inbounds nuw i8, ptr %2, i64 128
  %4 = load i32, ptr %3, align 8, !tbaa !50
  %5 = icmp sgt i32 %4, 0
  br i1 %5, label %pmix_pointer_array_get_item.exit, label %._crit_edge

pmix_pointer_array_get_item.exit:                 ; preds = %1, %21
  %indvars.iv = phi i64 [ %indvars.iv.next, %21 ], [ 0, %1 ]
  %6 = phi ptr [ %22, %21 ], [ %2, %1 ]
  %7 = getelementptr inbounds nuw i8, ptr %6, i64 152
  %8 = load ptr, ptr %7, align 8, !tbaa !53
  %9 = getelementptr inbounds nuw ptr, ptr %8, i64 %indvars.iv
  %10 = load ptr, ptr %9, align 8, !tbaa !54
  %11 = icmp eq ptr %10, null
  br i1 %11, label %21, label %12

12:                                               ; preds = %pmix_pointer_array_get_item.exit
  %13 = tail call zeroext i1 @PMIx_Nspace_invalid(ptr noundef %0) #13
  br i1 %13, label %17, label %14

14:                                               ; preds = %12
  %15 = getelementptr inbounds nuw i8, ptr %10, i64 144
  %16 = tail call zeroext i1 @PMIx_Check_nspace(ptr noundef %0, ptr noundef nonnull %15) #13
  br i1 %16, label %17, label %21

17:                                               ; preds = %14, %12
  %18 = getelementptr inbounds nuw i8, ptr %10, i64 472
  %19 = load i16, ptr %18, align 8, !tbaa !58
  %20 = and i16 %19, 1
  %.not = icmp eq i16 %20, 0
  br i1 %.not, label %21, label %._crit_edge

21:                                               ; preds = %14, %17, %pmix_pointer_array_get_item.exit
  %indvars.iv.next = add nuw nsw i64 %indvars.iv, 1
  %22 = load ptr, ptr @prte_local_children, align 8, !tbaa !49
  %23 = getelementptr inbounds nuw i8, ptr %22, i64 128
  %24 = load i32, ptr %23, align 8, !tbaa !50
  %25 = sext i32 %24 to i64
  %26 = icmp slt i64 %indvars.iv.next, %25
  br i1 %26, label %pmix_pointer_array_get_item.exit, label %._crit_edge, !llvm.loop !104

._crit_edge:                                      ; preds = %17, %21, %1
  %.lcssa = phi i1 [ false, %1 ], [ false, %21 ], [ true, %17 ]
  ret i1 %.lcssa
}